target datalayout = "e-m:e-p270:32:32-p271:32:32-p272:64:64-i64:64-i128:128-f80:128-n8:16:32:64-S128"
target triple = "x86_64-pc-linux-gnu"

%struct.commandline_param_info = type { ptr, i32, i32, ptr, ptr, ptr, ptr, i8, ptr }
%struct._GSList = type { ptr, ptr }

@global_commandline_info = hidden global %struct.commandline_param_info zeroinitializer, align 8

; Function Attrs: null_pointer_is_valid sspstrong uwtable
define hidden void @commandline_options_reapply() #0 {
  %1 = alloca ptr, align 8
  %2 = alloca ptr, align 8
  call void @llvm.lifetime.start.p0(i64 8, ptr %1) #9
  store ptr null, ptr %1, align 8
  call void @llvm.lifetime.start.p0(i64 8, ptr %2) #9
  store ptr null, ptr %2, align 8
  %3 = load ptr, ptr getelementptr inbounds nuw (%struct.commandline_param_info, ptr @global_commandline_info, i32 0, i32 8), align 8
  store ptr %3, ptr %2, align 8
  br label %4

4:                                                ; preds = %25, %0
  %5 = load ptr, ptr %2, align 8
  %6 = icmp ne ptr %5, null
  br i1 %6, label %7, label %27

7:                                                ; preds = %4
  %8 = load ptr, ptr %2, align 8
  %9 = getelementptr inbounds nuw %struct._GSList, ptr %8, i32 0, i32 0
  %10 = load ptr, ptr %9, align 8
  %11 = call i32 @prefs_set_pref(ptr noundef %10, ptr noundef %1)
  %12 = load ptr, ptr %1, align 8
  %13 = icmp ne ptr %12, null
  br i1 %13, label %14, label %16

14:                                               ; preds = %7
  %15 = load ptr, ptr %1, align 8
  call void @g_free(ptr noundef %15)
  store ptr null, ptr %1, align 8
  br label %16

16:                                               ; preds = %14, %7
  br label %17

17:                                               ; preds = %16
  %18 = load ptr, ptr %2, align 8
  %19 = icmp ne ptr %18, null
  br i1 %19, label %20, label %24

20:                                               ; preds = %17
  %21 = load ptr, ptr %2, align 8
  %22 = getelementptr inbounds nuw %struct._GSList, ptr %21, i32 0, i32 1
  %23 = load ptr, ptr %22, align 8
  br label %25

24:                                               ; preds = %17
  br label %25

25:                                               ; preds = %24, %20
  %26 = phi ptr [ %23, %20 ], [ null, %24 ]
  store ptr %26, ptr %2, align 8
  br label %4, !llvm.loop !13

27:                                               ; preds = %4
  call void @llvm.lifetime.end.p0(i64 8, ptr %2) #9
  call void @llvm.lifetime.end.p0(i64 8, ptr %1) #9
  ret void
}