; Function Attrs: null_pointer_is_valid sspstrong uwtable
define hidden void @commandline_options_reapply() local_unnamed_addr #0 {
  %1 = alloca ptr, align 8
  call void @llvm.lifetime.start.p0(i64 8, ptr nonnull %1) #9
  store ptr null, ptr %1, align 8
  %.06 = load ptr, ptr getelementptr inbounds nuw (i8, ptr @global_commandline_info, i64 56), align 8
  %.not7 = icmp eq ptr %.06, null
  br i1 %.not7, label %._crit_edge, label %.lr.ph

.lr.ph:                                           ; preds = %0, %6
  %.08 = phi ptr [ %.0, %6 ], [ %.06, %0 ]
  %2 = load ptr, ptr %.08, align 8
  %3 = call i32 @prefs_set_pref(ptr noundef %2, ptr noundef nonnull %1)
  %4 = load ptr, ptr %1, align 8
  %.not5 = icmp eq ptr %4, null
  br i1 %.not5, label %6, label %5

5:                                                ; preds = %.lr.ph
  call void @g_free(ptr noundef nonnull %4)
  store ptr null, ptr %1, align 8
  br label %6

6:                                                ; preds = %.lr.ph, %5
  %7 = getelementptr inbounds nuw i8, ptr %.08, i64 8
  %.0 = load ptr, ptr %7, align 8
  %.not = icmp eq ptr %.0, null
  br i1 %.not, label %._crit_edge, label %.lr.ph, !llvm.loop !11

._crit_edge:                                      ; preds = %6, %0
  call void @llvm.lifetime.end.p0(i64 8, ptr nonnull %1) #9
  ret void
}